; Function Attrs: mustprogress nofree norecurse nosync nounwind willreturn memory(read, inaccessiblemem: none) uwtable
define hidden noundef zeroext i1 @_ZNK5arith6solver19include_func_interpEP9func_decl(ptr nocapture nonnull readnone align 8 %this, ptr nocapture noundef readonly %f) unnamed_addr #9 align 2 {
entry:
  %m_info.i = getelementptr inbounds i8, ptr %f, i64 24
  %0 = load ptr, ptr %m_info.i, align 8
  %cmp.i = icmp eq ptr %0, null
  br i1 %cmp.i, label %return, label %_ZNK4decl13get_decl_kindEv.exit

_ZNK4decl13get_decl_kindEv.exit:                  ; preds = %entry
  %m_kind.i.i = getelementptr inbounds i8, ptr %0, i64 4
  %1 = load i32, ptr %m_kind.i.i, align 4
  %2 = icmp ult i32 %1, 23
  br i1 %2, label %switch.lookup, label %return

switch.lookup:                                    ; preds = %_ZNK4decl13get_decl_kindEv.exit
  %switch.cast = trunc i32 %1 to i23
  %switch.downshift = lshr i23 2256898, %switch.cast
  %3 = and i23 %switch.downshift, 1
  %switch.masked = icmp ne i23 %3, 0
  br label %return

return:                                           ; preds = %entry, %_ZNK4decl13get_decl_kindEv.exit, %switch.lookup
  %retval.0 = phi i1 [ %switch.masked, %switch.lookup ], [ true, %_ZNK4decl13get_decl_kindEv.exit ], [ true, %entry ]
  ret i1 %retval.0
}